Certificate:
    Data:
        Version: 1 (0x0)
        Serial Number:
            74:f4:57:f2:70:6a:dc:bf:a1:1a:21:04:ab:1d:8f:cf:72:04:65:58
        Signature Algorithm: ecdsa-with-SHA256
        Issuer: CN=CA, C=CN/emailAddress=CA@email.com, L=NanJing, O=PlatforU, ST=JiangSu
        Validity
            Not Before: Mar  3 09:34:18 2022 GMT
            Not After : Feb 29 09:34:18 2032 GMT
        Subject: C=CN, ST=JiangSu, O=PlatforU, CN=Hello/emailAddress=Text@email.com
        Subject Public Key Info:
            Public Key Algorithm: id-ecPublicKey
                Public-Key: (256 bit)
                pub:
                    04:30:59:3a:81:ca:1e:71:05:86:ed:00:1c:ea:bb:
                    b8:fc:6f:5b:9f:86:75:20:99:de:34:98:47:54:e9:
                    9c:6e:b2:8f:66:e5:27:e1:50:95:67:67:0a:9d:e7:
                    ff:c9:89:57:6d:27:a7:e9:2d:c3:a9:55:88:f4:e3:
                    19:16:cb:96:c0
                ASN1 OID: prime256v1
                NIST CURVE: P-256
    Signature Algorithm: ecdsa-with-SHA256
         30:45:02:20:0f:46:79:e2:ee:88:86:18:35:b9:d4:70:7f:22:
         c3:dc:7e:7a:b2:2a:e1:5d:91:a7:91:de:17:53:ce:67:41:eb:
         02:21:00:a5:20:05:85:c0:e6:73:71:19:73:d2:e6:ca:cf:c2:
         30:e6:b3:2b:a6:b0:10:11:c6:16:24:1a:d1:78:5f:eb:7f
-----BEGIN CERTIFICATE-----
MIIByjCCAXACFHT0V/Jwaty/oRohBKsdj89yBGVYMAoGCCqGSM49BAMCMG4xCzAJ
BgNVBAMMAkNBMQswCQYDVQQGEwJDTjEbMBkGCSqGSIb3DQEJARYMQ0FAZW1haWwu
Y29tMRAwDgYDVQQHDAdOYW5KaW5nMREwDwYDVQQKDAhQbGF0Zm9yVTEQMA4GA1UE
CAwHSmlhbmdTdTAeFw0yMjAzMDMwOTM0MThaFw0zMjAyMjkwOTM0MThaMGExCzAJ
BgNVBAYTAkNOMRAwDgYDVQQIDAdKaWFuZ1N1MREwDwYDVQQKDAhQbGF0Zm9yVTEO
MAwGA1UEAwwFSGVsbG8xHTAbBgkqhkiG9w0BCQEWDlRleHRAZW1haWwuY29tMFkw
EwYHKoZIzj0CAQYIKoZIzj0DAQcDQgAEMFk6gcoecQWG7QAc6ru4/G9bn4Z1IJne
NJhHVOmcbrKPZuUn4VCVZ2cKnef/yYlXbSen6S3DqVWI9OMZFsuWwDAKBggqhkjO
PQQDAgNIADBFAiAPRnni7oiGGDW51HB/IsPcfnqyKuFdkaeR3hdTzmdB6wIhAKUg
BYXA5nNxGXPS5srPwjDmsyumsBARxhYkGtF4X+t/
-----END CERTIFICATE-----
