Certificate:
    Data:
        Version: 1 (0x0)
        Serial Number:
            74:f4:57:f2:70:6a:dc:bf:a1:1a:21:04:ab:1d:8f:cf:72:04:65:57
        Signature Algorithm: ecdsa-with-SHA256
        Issuer: CN=CA, C=CN/emailAddress=CA@email.com, L=NanJing, O=PlatforU, ST=JiangSu
        Validity
            Not Before: Mar  3 09:34:05 2022 GMT
            Not After : Feb 29 09:34:05 2032 GMT
        Subject: C=CN, ST=JiangSu, O=PlatforU, CN=Hello/emailAddress=Text@email.com
        Subject Public Key Info:
            Public Key Algorithm: id-ecPublicKey
                Public-Key: (256 bit)
                pub:
                    04:74:6f:1e:d9:bd:c5:e6:41:48:d2:51:67:7c:28:
                    c4:81:a3:28:6d:f4:48:49:fd:f3:fa:38:09:f5:3a:
                    6f:ec:70:da:16:3e:f6:4b:f0:63:c2:10:37:73:46:
                    82:b8:cd:f6:35:4f:ca:b7:e6:dd:bd:58:c1:d2:3f:
                    06:d7:71:24:e2
                ASN1 OID: prime256v1
                NIST CURVE: P-256
    Signature Algorithm: ecdsa-with-SHA256
         30:46:02:21:00:b8:24:e3:ed:4f:b4:12:41:1c:f2:17:15:8b:
         20:0a:44:c0:4b:b5:e6:a3:f5:09:ef:a4:9a:7d:d7:0c:cf:12:
         81:02:21:00:e4:bc:ff:25:7c:c7:74:75:e4:7d:96:25:4b:49:
         2b:b4:86:07:17:db:57:f8:fe:db:b1:ef:be:7a:fb:c3:c8:41
-----BEGIN CERTIFICATE-----
MIIByzCCAXACFHT0V/Jwaty/oRohBKsdj89yBGVXMAoGCCqGSM49BAMCMG4xCzAJ
BgNVBAMMAkNBMQswCQYDVQQGEwJDTjEbMBkGCSqGSIb3DQEJARYMQ0FAZW1haWwu
Y29tMRAwDgYDVQQHDAdOYW5KaW5nMREwDwYDVQQKDAhQbGF0Zm9yVTEQMA4GA1UE
CAwHSmlhbmdTdTAeFw0yMjAzMDMwOTM0MDVaFw0zMjAyMjkwOTM0MDVaMGExCzAJ
BgNVBAYTAkNOMRAwDgYDVQQIDAdKaWFuZ1N1MREwDwYDVQQKDAhQbGF0Zm9yVTEO
MAwGA1UEAwwFSGVsbG8xHTAbBgkqhkiG9w0BCQEWDlRleHRAZW1haWwuY29tMFkw
EwYHKoZIzj0CAQYIKoZIzj0DAQcDQgAEdG8e2b3F5kFI0lFnfCjEgaMobfRISf3z
+jgJ9Tpv7HDaFj72S/BjwhA3c0aCuM32NU/Kt+bdvVjB0j8G13Ek4jAKBggqhkjO
PQQDAgNJADBGAiEAuCTj7U+0EkEc8hcViyAKRMBLteaj9QnvpJp91wzPEoECIQDk
vP8lfMd0deR9liVLSSu0hgcX21f4/tux7756+8PIQQ==
-----END CERTIFICATE-----
