Certificate:
    Data:
        Version: 1 (0x0)
        Serial Number:
            74:f4:57:f2:70:6a:dc:bf:a1:1a:21:04:ab:1d:8f:cf:72:04:65:52
        Signature Algorithm: ecdsa-with-SHA256
        Issuer: CN=CA, C=CN/emailAddress=CA@email.com, L=NanJing, O=PlatforU, ST=JiangSu
        Validity
            Not Before: Mar  3 09:31:12 2022 GMT
            Not After : Feb 29 09:31:12 2032 GMT
        Subject: C=CN, ST=JiangSu, O=PlatforU, CN=Hello/emailAddress=Text@email.com
        Subject Public Key Info:
            Public Key Algorithm: id-ecPublicKey
                Public-Key: (256 bit)
                pub:
                    04:bb:0a:de:21:00:9b:82:8f:cf:c2:fa:4a:60:f1:
                    85:b3:14:4c:98:9d:f7:0d:90:4f:57:48:b4:bb:d4:
                    15:8a:9a:96:56:85:d1:a3:50:fc:df:12:95:3c:2c:
                    82:d8:4c:1c:84:ef:59:75:36:84:ce:71:be:f0:76:
                    d8:0f:52:25:7a
                ASN1 OID: prime256v1
                NIST CURVE: P-256
    Signature Algorithm: ecdsa-with-SHA256
         30:45:02:21:00:b8:9c:cd:30:89:f8:46:ec:c4:c0:89:bb:f4:
         d3:63:45:06:51:0a:aa:1e:0f:78:5d:ad:b2:8c:49:92:ce:4a:
         10:02:20:3e:03:cb:4f:48:24:bf:ed:ba:46:2c:4f:ff:68:6d:
         9b:af:21:da:ee:c6:7f:88:15:f5:ff:c5:62:68:84:92:61
-----BEGIN CERTIFICATE-----
MIIByjCCAXACFHT0V/Jwaty/oRohBKsdj89yBGVSMAoGCCqGSM49BAMCMG4xCzAJ
BgNVBAMMAkNBMQswCQYDVQQGEwJDTjEbMBkGCSqGSIb3DQEJARYMQ0FAZW1haWwu
Y29tMRAwDgYDVQQHDAdOYW5KaW5nMREwDwYDVQQKDAhQbGF0Zm9yVTEQMA4GA1UE
CAwHSmlhbmdTdTAeFw0yMjAzMDMwOTMxMTJaFw0zMjAyMjkwOTMxMTJaMGExCzAJ
BgNVBAYTAkNOMRAwDgYDVQQIDAdKaWFuZ1N1MREwDwYDVQQKDAhQbGF0Zm9yVTEO
MAwGA1UEAwwFSGVsbG8xHTAbBgkqhkiG9w0BCQEWDlRleHRAZW1haWwuY29tMFkw
EwYHKoZIzj0CAQYIKoZIzj0DAQcDQgAEuwreIQCbgo/PwvpKYPGFsxRMmJ33DZBP
V0i0u9QVipqWVoXRo1D83xKVPCyC2EwchO9ZdTaEznG+8HbYD1IlejAKBggqhkjO
PQQDAgNIADBFAiEAuJzNMIn4RuzEwIm79NNjRQZRCqoeD3hdrbKMSZLOShACID4D
y09IJL/tukYsT/9obZuvIdruxn+IFfX/xWJohJJh
-----END CERTIFICATE-----
