Certificate:
    Data:
        Version: 1 (0x0)
        Serial Number:
            74:f4:57:f2:70:6a:dc:bf:a1:1a:21:04:ab:1d:8f:cf:72:04:65:54
        Signature Algorithm: ecdsa-with-SHA256
        Issuer: CN=CA, C=CN/emailAddress=CA@email.com, L=NanJing, O=PlatforU, ST=JiangSu
        Validity
            Not Before: Mar  3 09:32:29 2022 GMT
            Not After : Feb 29 09:32:29 2032 GMT
        Subject: C=CN, ST=JiangSu, O=PlatforU, CN=Hello/emailAddress=Text@email.com
        Subject Public Key Info:
            Public Key Algorithm: id-ecPublicKey
                Public-Key: (256 bit)
                pub:
                    04:a5:94:c0:1e:40:63:ab:ab:e5:71:95:c7:06:a2:
                    37:89:5d:d3:f5:97:d1:70:c5:39:99:c0:e0:ad:41:
                    0b:28:8e:fc:86:81:67:94:55:35:23:85:c3:73:14:
                    bd:54:a4:32:bb:0a:2b:12:41:86:c3:69:01:be:08:
                    de:ff:f6:9f:e2
                ASN1 OID: prime256v1
                NIST CURVE: P-256
    Signature Algorithm: ecdsa-with-SHA256
         30:45:02:20:35:94:de:8a:37:cb:5f:10:0d:eb:a5:d6:dd:97:
         53:c4:b5:b5:68:7f:e7:32:42:3f:62:0a:f7:d1:f4:51:0b:81:
         02:21:00:f0:4c:43:6b:ff:03:a3:33:79:aa:4c:aa:74:bf:80:
         52:ed:b5:cd:0b:f8:1b:4b:81:97:1a:e7:0e:18:8d:ff:73
-----BEGIN CERTIFICATE-----
MIIByjCCAXACFHT0V/Jwaty/oRohBKsdj89yBGVUMAoGCCqGSM49BAMCMG4xCzAJ
BgNVBAMMAkNBMQswCQYDVQQGEwJDTjEbMBkGCSqGSIb3DQEJARYMQ0FAZW1haWwu
Y29tMRAwDgYDVQQHDAdOYW5KaW5nMREwDwYDVQQKDAhQbGF0Zm9yVTEQMA4GA1UE
CAwHSmlhbmdTdTAeFw0yMjAzMDMwOTMyMjlaFw0zMjAyMjkwOTMyMjlaMGExCzAJ
BgNVBAYTAkNOMRAwDgYDVQQIDAdKaWFuZ1N1MREwDwYDVQQKDAhQbGF0Zm9yVTEO
MAwGA1UEAwwFSGVsbG8xHTAbBgkqhkiG9w0BCQEWDlRleHRAZW1haWwuY29tMFkw
EwYHKoZIzj0CAQYIKoZIzj0DAQcDQgAEpZTAHkBjq6vlcZXHBqI3iV3T9ZfRcMU5
mcDgrUELKI78hoFnlFU1I4XDcxS9VKQyuworEkGGw2kBvgje//af4jAKBggqhkjO
PQQDAgNIADBFAiA1lN6KN8tfEA3rpdbdl1PEtbVof+cyQj9iCvfR9FELgQIhAPBM
Q2v/A6MzeapMqnS/gFLttc0L+BtLgZca5w4Yjf9z
-----END CERTIFICATE-----
