Certificate:
    Data:
        Version: 1 (0x0)
        Serial Number:
            74:f4:57:f2:70:6a:dc:bf:a1:1a:21:04:ab:1d:8f:cf:72:04:65:4d
        Signature Algorithm: ecdsa-with-SHA256
        Issuer: CN=CA, C=CN/emailAddress=CA@email.com, L=NanJing, O=PlatforU, ST=JiangSu
        Validity
            Not Before: Mar  3 09:21:42 2022 GMT
            Not After : Feb 29 09:21:42 2032 GMT
        Subject: C=CN, ST=JiangSu, O=PlatforU, CN=Hello/emailAddress=Text@email.com
        Subject Public Key Info:
            Public Key Algorithm: id-ecPublicKey
                Public-Key: (256 bit)
                pub:
                    04:2b:ab:2d:3e:2d:f1:72:cb:6d:71:3c:43:60:16:
                    37:db:1c:68:6d:8f:7a:dc:44:b9:9e:de:74:83:ee:
                    1d:96:89:d1:d8:7d:ec:26:ed:f1:bf:d1:b6:df:bf:
                    cc:b8:97:d8:e4:5b:93:34:36:7c:a9:de:a5:db:f4:
                    49:d1:0b:0b:58
                ASN1 OID: prime256v1
                NIST CURVE: P-256
    Signature Algorithm: ecdsa-with-SHA256
         30:44:02:20:51:ae:11:bf:7b:39:2c:c4:3c:1a:be:bd:f3:7c:
         34:e1:63:a4:64:57:48:6a:09:06:77:28:89:8e:90:0a:75:c2:
         02:20:55:44:85:28:13:1d:80:8a:f4:24:03:11:84:72:4c:a4:
         b2:db:a8:73:f2:5d:35:dc:3c:0a:cd:fd:4e:8f:f4:ab
-----BEGIN CERTIFICATE-----
MIIByTCCAXACFHT0V/Jwaty/oRohBKsdj89yBGVNMAoGCCqGSM49BAMCMG4xCzAJ
BgNVBAMMAkNBMQswCQYDVQQGEwJDTjEbMBkGCSqGSIb3DQEJARYMQ0FAZW1haWwu
Y29tMRAwDgYDVQQHDAdOYW5KaW5nMREwDwYDVQQKDAhQbGF0Zm9yVTEQMA4GA1UE
CAwHSmlhbmdTdTAeFw0yMjAzMDMwOTIxNDJaFw0zMjAyMjkwOTIxNDJaMGExCzAJ
BgNVBAYTAkNOMRAwDgYDVQQIDAdKaWFuZ1N1MREwDwYDVQQKDAhQbGF0Zm9yVTEO
MAwGA1UEAwwFSGVsbG8xHTAbBgkqhkiG9w0BCQEWDlRleHRAZW1haWwuY29tMFkw
EwYHKoZIzj0CAQYIKoZIzj0DAQcDQgAEK6stPi3xcsttcTxDYBY32xxobY963ES5
nt50g+4dlonR2H3sJu3xv9G237/MuJfY5FuTNDZ8qd6l2/RJ0QsLWDAKBggqhkjO
PQQDAgNHADBEAiBRrhG/ezksxDwavr3zfDThY6RkV0hqCQZ3KImOkAp1wgIgVUSF
KBMdgIr0JAMRhHJMpLLbqHPyXTXcPArN/U6P9Ks=
-----END CERTIFICATE-----
