Certificate:
    Data:
        Version: 1 (0x0)
        Serial Number:
            74:f4:57:f2:70:6a:dc:bf:a1:1a:21:04:ab:1d:8f:cf:72:04:65:51
        Signature Algorithm: ecdsa-with-SHA256
        Issuer: CN=CA, C=CN/emailAddress=CA@email.com, L=NanJing, O=PlatforU, ST=JiangSu
        Validity
            Not Before: Mar  3 09:30:33 2022 GMT
            Not After : Feb 29 09:30:33 2032 GMT
        Subject: C=CN, ST=JiangSu, O=PlatforU, CN=Hello/emailAddress=Text@email.com
        Subject Public Key Info:
            Public Key Algorithm: id-ecPublicKey
                Public-Key: (256 bit)
                pub:
                    04:93:7d:ea:c2:e5:c0:08:ee:90:01:41:3b:42:47:
                    71:b3:72:9c:99:7a:1c:86:d7:e2:2f:23:0e:28:05:
                    dc:9d:9e:56:99:ee:3f:ad:26:76:2d:8e:5e:68:72:
                    30:4b:e7:02:ea:1b:b0:5d:31:b9:06:08:9f:6d:1b:
                    36:eb:40:34:d1
                ASN1 OID: prime256v1
                NIST CURVE: P-256
    Signature Algorithm: ecdsa-with-SHA256
         30:45:02:20:77:29:69:ee:57:ab:58:78:27:18:2a:2b:c8:d8:
         f2:06:fa:69:df:5e:d4:bd:ad:bd:94:d2:b9:d8:06:3e:5e:59:
         02:21:00:85:76:d1:f5:6d:5e:dd:30:77:23:96:98:b6:75:09:
         b5:bc:f4:e1:84:27:fa:87:90:c5:72:7e:45:b6:7b:75:27
-----BEGIN CERTIFICATE-----
MIIByjCCAXACFHT0V/Jwaty/oRohBKsdj89yBGVRMAoGCCqGSM49BAMCMG4xCzAJ
BgNVBAMMAkNBMQswCQYDVQQGEwJDTjEbMBkGCSqGSIb3DQEJARYMQ0FAZW1haWwu
Y29tMRAwDgYDVQQHDAdOYW5KaW5nMREwDwYDVQQKDAhQbGF0Zm9yVTEQMA4GA1UE
CAwHSmlhbmdTdTAeFw0yMjAzMDMwOTMwMzNaFw0zMjAyMjkwOTMwMzNaMGExCzAJ
BgNVBAYTAkNOMRAwDgYDVQQIDAdKaWFuZ1N1MREwDwYDVQQKDAhQbGF0Zm9yVTEO
MAwGA1UEAwwFSGVsbG8xHTAbBgkqhkiG9w0BCQEWDlRleHRAZW1haWwuY29tMFkw
EwYHKoZIzj0CAQYIKoZIzj0DAQcDQgAEk33qwuXACO6QAUE7Qkdxs3KcmXochtfi
LyMOKAXcnZ5Wme4/rSZ2LY5eaHIwS+cC6huwXTG5BgifbRs260A00TAKBggqhkjO
PQQDAgNIADBFAiB3KWnuV6tYeCcYKivI2PIG+mnfXtS9rb2U0rnYBj5eWQIhAIV2
0fVtXt0wdyOWmLZ1CbW89OGEJ/qHkMVyfkW2e3Un
-----END CERTIFICATE-----
