Certificate:
    Data:
        Version: 1 (0x0)
        Serial Number:
            74:f4:57:f2:70:6a:dc:bf:a1:1a:21:04:ab:1d:8f:cf:72:04:65:53
        Signature Algorithm: ecdsa-with-SHA256
        Issuer: CN=CA, C=CN/emailAddress=CA@email.com, L=NanJing, O=PlatforU, ST=JiangSu
        Validity
            Not Before: Mar  3 09:31:16 2022 GMT
            Not After : Feb 29 09:31:16 2032 GMT
        Subject: C=CN, ST=JiangSu, O=PlatforU, CN=Hello/emailAddress=Text@email.com
        Subject Public Key Info:
            Public Key Algorithm: id-ecPublicKey
                Public-Key: (256 bit)
                pub:
                    04:19:d9:ae:f3:a1:72:6e:07:a4:28:3c:7f:06:56:
                    49:ab:c3:02:5d:cb:f3:2c:76:b9:d0:3b:7f:e6:9b:
                    b8:d6:c5:48:83:55:87:8b:c4:00:9c:6d:93:d4:3d:
                    bc:ba:b9:35:35:d1:c8:0e:5d:cb:ee:90:30:2d:e8:
                    d2:29:df:8c:25
                ASN1 OID: prime256v1
                NIST CURVE: P-256
    Signature Algorithm: ecdsa-with-SHA256
         30:44:02:20:4f:43:c0:82:6b:97:b9:ac:cc:bb:78:42:f5:70:
         63:86:ad:ca:6a:44:85:86:7c:10:1c:f6:a3:41:b8:9f:8a:73:
         02:20:64:d1:a7:d1:74:41:e5:c7:95:7e:e1:19:1b:58:c9:f2:
         84:9b:7b:fa:35:75:ec:bc:e0:6f:3e:4a:f5:b9:b7:ad
-----BEGIN CERTIFICATE-----
MIIByTCCAXACFHT0V/Jwaty/oRohBKsdj89yBGVTMAoGCCqGSM49BAMCMG4xCzAJ
BgNVBAMMAkNBMQswCQYDVQQGEwJDTjEbMBkGCSqGSIb3DQEJARYMQ0FAZW1haWwu
Y29tMRAwDgYDVQQHDAdOYW5KaW5nMREwDwYDVQQKDAhQbGF0Zm9yVTEQMA4GA1UE
CAwHSmlhbmdTdTAeFw0yMjAzMDMwOTMxMTZaFw0zMjAyMjkwOTMxMTZaMGExCzAJ
BgNVBAYTAkNOMRAwDgYDVQQIDAdKaWFuZ1N1MREwDwYDVQQKDAhQbGF0Zm9yVTEO
MAwGA1UEAwwFSGVsbG8xHTAbBgkqhkiG9w0BCQEWDlRleHRAZW1haWwuY29tMFkw
EwYHKoZIzj0CAQYIKoZIzj0DAQcDQgAEGdmu86FybgekKDx/BlZJq8MCXcvzLHa5
0Dt/5pu41sVIg1WHi8QAnG2T1D28urk1NdHIDl3L7pAwLejSKd+MJTAKBggqhkjO
PQQDAgNHADBEAiBPQ8CCa5e5rMy7eEL1cGOGrcpqRIWGfBAc9qNBuJ+KcwIgZNGn
0XRB5ceVfuEZG1jJ8oSbe/o1dey84G8+SvW5t60=
-----END CERTIFICATE-----
