Certificate:
    Data:
        Version: 1 (0x0)
        Serial Number:
            74:f4:57:f2:70:6a:dc:bf:a1:1a:21:04:ab:1d:8f:cf:72:04:65:4e
        Signature Algorithm: ecdsa-with-SHA256
        Issuer: CN=CA, C=CN/emailAddress=CA@email.com, L=NanJing, O=PlatforU, ST=JiangSu
        Validity
            Not Before: Mar  3 09:27:13 2022 GMT
            Not After : Feb 29 09:27:13 2032 GMT
        Subject: C=CN, ST=JiangSu, O=PlatforU, CN=Hello/emailAddress=Text@email.com
        Subject Public Key Info:
            Public Key Algorithm: id-ecPublicKey
                Public-Key: (256 bit)
                pub:
                    04:f1:92:ce:52:46:66:9c:02:df:04:68:d3:62:ac:
                    dc:78:fe:66:c3:54:9f:bd:77:af:6e:50:66:88:f3:
                    92:54:62:ef:bf:ca:97:cd:d3:5d:fa:0b:6e:49:77:
                    bd:b0:23:47:07:8b:6f:32:de:28:eb:c0:a3:11:26:
                    47:4a:de:7b:42
                ASN1 OID: prime256v1
                NIST CURVE: P-256
    Signature Algorithm: ecdsa-with-SHA256
         30:46:02:21:00:fa:22:01:5e:f2:ec:f2:26:19:a7:d9:a5:73:
         e2:1d:27:e4:d0:94:66:c4:05:04:3f:29:ae:92:15:8a:d3:9e:
         a4:02:21:00:c5:2f:33:9c:89:44:dd:5b:70:be:c7:6c:f9:45:
         bc:7a:af:be:ce:1b:a0:39:76:66:ff:f5:37:66:95:eb:c8:ed
-----BEGIN CERTIFICATE-----
MIIByzCCAXACFHT0V/Jwaty/oRohBKsdj89yBGVOMAoGCCqGSM49BAMCMG4xCzAJ
BgNVBAMMAkNBMQswCQYDVQQGEwJDTjEbMBkGCSqGSIb3DQEJARYMQ0FAZW1haWwu
Y29tMRAwDgYDVQQHDAdOYW5KaW5nMREwDwYDVQQKDAhQbGF0Zm9yVTEQMA4GA1UE
CAwHSmlhbmdTdTAeFw0yMjAzMDMwOTI3MTNaFw0zMjAyMjkwOTI3MTNaMGExCzAJ
BgNVBAYTAkNOMRAwDgYDVQQIDAdKaWFuZ1N1MREwDwYDVQQKDAhQbGF0Zm9yVTEO
MAwGA1UEAwwFSGVsbG8xHTAbBgkqhkiG9w0BCQEWDlRleHRAZW1haWwuY29tMFkw
EwYHKoZIzj0CAQYIKoZIzj0DAQcDQgAE8ZLOUkZmnALfBGjTYqzceP5mw1SfvXev
blBmiPOSVGLvv8qXzdNd+gtuSXe9sCNHB4tvMt4o68CjESZHSt57QjAKBggqhkjO
PQQDAgNJADBGAiEA+iIBXvLs8iYZp9mlc+IdJ+TQlGbEBQQ/Ka6SFYrTnqQCIQDF
LzOciUTdW3C+x2z5Rbx6r77OG6A5dmb/9TdmlevI7Q==
-----END CERTIFICATE-----
