Certificate:
    Data:
        Version: 1 (0x0)
        Serial Number:
            74:f4:57:f2:70:6a:dc:bf:a1:1a:21:04:ab:1d:8f:cf:72:04:65:4f
        Signature Algorithm: ecdsa-with-SHA256
        Issuer: CN=CA, C=CN/emailAddress=CA@email.com, L=NanJing, O=PlatforU, ST=JiangSu
        Validity
            Not Before: Mar  3 09:27:26 2022 GMT
            Not After : Feb 29 09:27:26 2032 GMT
        Subject: C=CN, ST=JiangSu, O=PlatforU, CN=Hello/emailAddress=Text@email.com
        Subject Public Key Info:
            Public Key Algorithm: id-ecPublicKey
                Public-Key: (256 bit)
                pub:
                    04:bc:a8:fc:ce:f1:a3:5d:a2:ea:76:e4:cf:75:64:
                    44:38:3b:45:1f:a4:fb:ee:38:65:11:1a:f5:a4:2f:
                    6e:ce:35:01:fd:ff:dd:60:c9:47:87:0d:01:8b:e4:
                    59:e3:df:50:03:05:11:85:7f:66:89:ce:1d:bb:cc:
                    d6:91:a4:00:3a
                ASN1 OID: prime256v1
                NIST CURVE: P-256
    Signature Algorithm: ecdsa-with-SHA256
         30:44:02:20:15:d5:45:48:fb:44:da:04:b5:3a:43:72:5f:90:
         ab:60:37:11:69:51:90:25:5e:18:ac:e8:b1:b8:23:de:b0:75:
         02:20:72:a6:16:ba:bb:c4:e8:7f:d9:d6:8e:10:ae:40:34:a5:
         ec:97:15:32:63:cf:68:c1:22:2d:3d:f3:67:e0:74:c8
-----BEGIN CERTIFICATE-----
MIIByTCCAXACFHT0V/Jwaty/oRohBKsdj89yBGVPMAoGCCqGSM49BAMCMG4xCzAJ
BgNVBAMMAkNBMQswCQYDVQQGEwJDTjEbMBkGCSqGSIb3DQEJARYMQ0FAZW1haWwu
Y29tMRAwDgYDVQQHDAdOYW5KaW5nMREwDwYDVQQKDAhQbGF0Zm9yVTEQMA4GA1UE
CAwHSmlhbmdTdTAeFw0yMjAzMDMwOTI3MjZaFw0zMjAyMjkwOTI3MjZaMGExCzAJ
BgNVBAYTAkNOMRAwDgYDVQQIDAdKaWFuZ1N1MREwDwYDVQQKDAhQbGF0Zm9yVTEO
MAwGA1UEAwwFSGVsbG8xHTAbBgkqhkiG9w0BCQEWDlRleHRAZW1haWwuY29tMFkw
EwYHKoZIzj0CAQYIKoZIzj0DAQcDQgAEvKj8zvGjXaLqduTPdWREODtFH6T77jhl
ERr1pC9uzjUB/f/dYMlHhw0Bi+RZ499QAwURhX9mic4du8zWkaQAOjAKBggqhkjO
PQQDAgNHADBEAiAV1UVI+0TaBLU6Q3JfkKtgNxFpUZAlXhis6LG4I96wdQIgcqYW
urvE6H/Z1o4QrkA0peyXFTJjz2jBIi0982fgdMg=
-----END CERTIFICATE-----
