Certificate:
    Data:
        Version: 1 (0x0)
        Serial Number:
            74:f4:57:f2:70:6a:dc:bf:a1:1a:21:04:ab:1d:8f:cf:72:04:65:55
        Signature Algorithm: ecdsa-with-SHA256
        Issuer: CN=CA, C=CN/emailAddress=CA@email.com, L=NanJing, O=PlatforU, ST=JiangSu
        Validity
            Not Before: Mar  3 09:33:18 2022 GMT
            Not After : Feb 29 09:33:18 2032 GMT
        Subject: C=CN, ST=JiangSu, O=PlatforU, CN=Hello/emailAddress=Text@email.com
        Subject Public Key Info:
            Public Key Algorithm: id-ecPublicKey
                Public-Key: (256 bit)
                pub:
                    04:59:7a:c8:32:fb:b5:2d:d6:c6:a9:90:52:78:e5:
                    01:c2:76:24:af:01:ac:f8:6a:25:76:00:fd:f8:d5:
                    1f:90:2c:db:50:be:3d:60:cc:ae:98:48:9d:28:c5:
                    f2:74:d4:93:8e:98:3b:e3:ea:50:14:77:cc:1b:4e:
                    57:73:39:2d:71
                ASN1 OID: prime256v1
                NIST CURVE: P-256
    Signature Algorithm: ecdsa-with-SHA256
         30:46:02:21:00:a5:ea:a0:07:62:5b:df:0e:43:18:8f:89:54:
         46:d9:0a:7e:75:07:de:89:38:53:0b:60:1c:42:6f:1b:ae:79:
         02:02:21:00:bd:27:4f:0c:34:05:f2:50:e2:9f:15:02:34:dd:
         17:a4:5a:73:c1:0d:1f:2e:b6:2d:fa:2d:20:d0:9c:f1:d7:3b
-----BEGIN CERTIFICATE-----
MIIByzCCAXACFHT0V/Jwaty/oRohBKsdj89yBGVVMAoGCCqGSM49BAMCMG4xCzAJ
BgNVBAMMAkNBMQswCQYDVQQGEwJDTjEbMBkGCSqGSIb3DQEJARYMQ0FAZW1haWwu
Y29tMRAwDgYDVQQHDAdOYW5KaW5nMREwDwYDVQQKDAhQbGF0Zm9yVTEQMA4GA1UE
CAwHSmlhbmdTdTAeFw0yMjAzMDMwOTMzMThaFw0zMjAyMjkwOTMzMThaMGExCzAJ
BgNVBAYTAkNOMRAwDgYDVQQIDAdKaWFuZ1N1MREwDwYDVQQKDAhQbGF0Zm9yVTEO
MAwGA1UEAwwFSGVsbG8xHTAbBgkqhkiG9w0BCQEWDlRleHRAZW1haWwuY29tMFkw
EwYHKoZIzj0CAQYIKoZIzj0DAQcDQgAEWXrIMvu1LdbGqZBSeOUBwnYkrwGs+Gol
dgD9+NUfkCzbUL49YMyumEidKMXydNSTjpg74+pQFHfMG05XczktcTAKBggqhkjO
PQQDAgNJADBGAiEApeqgB2Jb3w5DGI+JVEbZCn51B96JOFMLYBxCbxuueQICIQC9
J08MNAXyUOKfFQI03RekWnPBDR8uti36LSDQnPHXOw==
-----END CERTIFICATE-----
