Certificate:
    Data:
        Version: 1 (0x0)
        Serial Number:
            74:f4:57:f2:70:6a:dc:bf:a1:1a:21:04:ab:1d:8f:cf:72:04:65:56
        Signature Algorithm: ecdsa-with-SHA256
        Issuer: CN=CA, C=CN/emailAddress=CA@email.com, L=NanJing, O=PlatforU, ST=JiangSu
        Validity
            Not Before: Mar  3 09:33:24 2022 GMT
            Not After : Feb 29 09:33:24 2032 GMT
        Subject: C=CN, ST=JiangSu, O=PlatforU, CN=Hello/emailAddress=Text@email.com
        Subject Public Key Info:
            Public Key Algorithm: id-ecPublicKey
                Public-Key: (256 bit)
                pub:
                    04:9e:1f:7d:b7:6d:64:64:fc:75:e1:28:50:eb:ca:
                    a1:c8:e0:82:e8:ec:52:81:00:79:6d:02:32:b4:16:
                    fe:06:17:f3:a9:5d:0f:91:52:cd:0a:38:53:4c:2d:
                    c0:4d:55:81:6d:25:b9:46:a9:92:97:67:18:9c:0a:
                    7c:1a:33:d1:9f
                ASN1 OID: prime256v1
                NIST CURVE: P-256
    Signature Algorithm: ecdsa-with-SHA256
         30:44:02:20:1b:ac:45:a2:36:15:08:06:71:16:82:5e:5d:a5:
         7b:5b:88:8f:1d:69:eb:ca:ee:8f:4e:93:6e:fc:26:13:12:2b:
         02:20:58:ec:00:41:0f:38:9b:47:f6:14:af:75:65:bb:f0:07:
         3a:5b:12:e7:47:ee:68:af:ce:9b:b3:4e:dc:4c:53:63
-----BEGIN CERTIFICATE-----
MIIByTCCAXACFHT0V/Jwaty/oRohBKsdj89yBGVWMAoGCCqGSM49BAMCMG4xCzAJ
BgNVBAMMAkNBMQswCQYDVQQGEwJDTjEbMBkGCSqGSIb3DQEJARYMQ0FAZW1haWwu
Y29tMRAwDgYDVQQHDAdOYW5KaW5nMREwDwYDVQQKDAhQbGF0Zm9yVTEQMA4GA1UE
CAwHSmlhbmdTdTAeFw0yMjAzMDMwOTMzMjRaFw0zMjAyMjkwOTMzMjRaMGExCzAJ
BgNVBAYTAkNOMRAwDgYDVQQIDAdKaWFuZ1N1MREwDwYDVQQKDAhQbGF0Zm9yVTEO
MAwGA1UEAwwFSGVsbG8xHTAbBgkqhkiG9w0BCQEWDlRleHRAZW1haWwuY29tMFkw
EwYHKoZIzj0CAQYIKoZIzj0DAQcDQgAEnh99t21kZPx14ShQ68qhyOCC6OxSgQB5
bQIytBb+BhfzqV0PkVLNCjhTTC3ATVWBbSW5RqmSl2cYnAp8GjPRnzAKBggqhkjO
PQQDAgNHADBEAiAbrEWiNhUIBnEWgl5dpXtbiI8daevK7o9Ok278JhMSKwIgWOwA
QQ84m0f2FK91ZbvwBzpbEudH7mivzpuzTtxMU2M=
-----END CERTIFICATE-----
