Certificate:
    Data:
        Version: 1 (0x0)
        Serial Number:
            74:f4:57:f2:70:6a:dc:bf:a1:1a:21:04:ab:1d:8f:cf:72:04:65:50
        Signature Algorithm: ecdsa-with-SHA256
        Issuer: CN=CA, C=CN/emailAddress=CA@email.com, L=NanJing, O=PlatforU, ST=JiangSu
        Validity
            Not Before: Mar  3 09:29:19 2022 GMT
            Not After : Feb 29 09:29:19 2032 GMT
        Subject: C=CN, ST=JiangSu, O=PlatforU, CN=Hello/emailAddress=Text@email.com
        Subject Public Key Info:
            Public Key Algorithm: id-ecPublicKey
                Public-Key: (256 bit)
                pub:
                    04:14:6a:d3:21:9b:c5:48:d0:eb:b4:3e:ae:94:84:
                    57:05:f3:1b:c3:ce:8f:ba:89:56:a5:97:c9:10:12:
                    3e:65:cd:c6:f1:10:3a:67:0f:10:05:08:ab:0a:ff:
                    15:0c:01:a8:5e:05:3f:b8:f8:82:bf:ff:f7:ef:09:
                    8b:d3:14:2d:43
                ASN1 OID: prime256v1
                NIST CURVE: P-256
    Signature Algorithm: ecdsa-with-SHA256
         30:46:02:21:00:dc:ac:cb:2e:3d:a2:29:fe:22:6b:67:ee:a3:
         6f:3e:ce:2c:4b:f8:44:c7:78:a7:e6:5d:06:e1:83:a6:28:1f:
         2d:02:21:00:98:7a:1a:d8:49:cf:32:17:44:01:84:b0:62:99:
         c0:30:f0:38:1c:97:07:43:f4:7f:12:45:5e:a9:0f:d6:4b:1a
-----BEGIN CERTIFICATE-----
MIIByzCCAXACFHT0V/Jwaty/oRohBKsdj89yBGVQMAoGCCqGSM49BAMCMG4xCzAJ
BgNVBAMMAkNBMQswCQYDVQQGEwJDTjEbMBkGCSqGSIb3DQEJARYMQ0FAZW1haWwu
Y29tMRAwDgYDVQQHDAdOYW5KaW5nMREwDwYDVQQKDAhQbGF0Zm9yVTEQMA4GA1UE
CAwHSmlhbmdTdTAeFw0yMjAzMDMwOTI5MTlaFw0zMjAyMjkwOTI5MTlaMGExCzAJ
BgNVBAYTAkNOMRAwDgYDVQQIDAdKaWFuZ1N1MREwDwYDVQQKDAhQbGF0Zm9yVTEO
MAwGA1UEAwwFSGVsbG8xHTAbBgkqhkiG9w0BCQEWDlRleHRAZW1haWwuY29tMFkw
EwYHKoZIzj0CAQYIKoZIzj0DAQcDQgAEFGrTIZvFSNDrtD6ulIRXBfMbw86PuolW
pZfJEBI+Zc3G8RA6Zw8QBQirCv8VDAGoXgU/uPiCv//37wmL0xQtQzAKBggqhkjO
PQQDAgNJADBGAiEA3KzLLj2iKf4ia2fuo28+zixL+ETHeKfmXQbhg6YoHy0CIQCY
ehrYSc8yF0QBhLBimcAw8DgclwdD9H8SRV6pD9ZLGg==
-----END CERTIFICATE-----
